Certificate:
    Data:
        Version: 3 (0x2)
        Serial Number:
            02:93:65:04:8f:a9:8f:0e:f4:f2:85:12:c1:37:42:52:38:8d:ef:91
        Signature Algorithm: sha256WithRSAEncryption
        Issuer: CN = localhost, emailAddress = dev@thrift.apache.org, OU = Apache Thrift, O = The Apache Software Foundation, L = Forest Hill, ST = Maryland, C = US
        Validity
            Not Before: Jun 11 05:51:41 2025 GMT
            Not After : Aug 28 05:51:41 2033 GMT
        Subject: CN = localhost, emailAddress = dev@thrift.apache.org, OU = Apache Thrift, O = The Apache Software Foundation, L = Forest Hill, ST = Maryland, C = US
        Subject Public Key Info:
            Public Key Algorithm: rsaEncryption
                Public-Key: (4096 bit)
                Modulus:
                    00:d0:41:76:fe:17:bc:aa:22:d0:33:f8:63:9b:2e:
                    fd:cc:1e:4f:37:23:ff:1c:c1:15:c7:a0:81:1d:2c:
                    fc:a1:ba:67:25:6e:fd:56:78:1d:a7:20:3c:d6:2a:
                    7d:ac:dd:d0:6d:17:8d:df:a9:51:bb:00:f7:24:2f:
                    91:1a:ac:39:72:ef:ba:94:92:21:8c:8a:35:85:ff:
                    c9:ea:7d:fc:31:08:49:64:b4:97:fa:01:59:4f:4a:
                    05:7d:57:3a:07:eb:9b:8f:30:c7:c2:82:2e:31:fd:
                    cc:70:4c:ab:bc:11:3e:36:f7:17:88:c8:4e:8d:37:
                    cc:d8:95:46:48:84:29:57:1a:20:ca:11:c1:13:8e:
                    73:b0:1b:f7:b1:da:f4:05:6c:c7:6b:8a:f9:5e:e8:
                    bc:87:46:cc:51:f5:78:8a:a4:b7:dc:88:2a:c1:b1:
                    b8:eb:70:e9:cb:48:a1:a4:5a:2c:87:dd:c8:38:73:
                    22:d1:d0:0c:37:38:37:02:e0:6f:df:f1:d8:c8:3a:
                    b0:8d:61:21:7e:e0:c0:5b:30:0d:fb:21:07:37:ea:
                    84:53:26:90:23:27:d5:15:ae:7d:a5:ac:92:08:ec:
                    ee:35:4b:eb:c2:fd:74:a5:d8:b9:9b:a8:70:dd:91:
                    6c:1d:5a:78:3e:97:c4:db:78:c0:6d:03:08:c4:a7:
                    96:8d:69:8c:33:62:22:7d:02:4b:1f:97:2b:01:28:
                    ac:2c:89:91:4b:f1:c3:8c:1f:65:0f:bc:1d:0c:6a:
                    4d:f0:95:04:a7:51:54:f8:7b:33:70:2a:d4:66:8b:
                    58:11:74:7b:2d:c3:0c:5c:7e:05:09:ce:67:ab:c3:
                    5f:86:a8:fc:f2:24:8c:c6:24:0b:9a:5c:e0:4f:3f:
                    ea:72:e4:d0:34:b3:a3:04:e7:18:87:6d:dd:49:bc:
                    f7:47:92:e2:03:a2:29:d7:ef:eb:8b:50:8c:95:78:
                    47:30:1e:37:7f:8e:f3:e6:58:dd:81:93:59:bb:64:
                    5a:eb:f8:6f:9b:2b:d0:e8:f2:93:88:b5:cd:13:87:
                    6e:c1:b1:17:33:e5:de:5c:15:49:2f:91:68:26:cd:
                    d1:50:0c:db:df:32:2e:58:e1:23:7a:28:71:a5:bc:
                    ba:82:5b:fb:3c:2b:ed:1b:07:5f:d8:f0:b5:ab:c1:
                    c8:cd:6d:13:9a:ad:08:10:61:b1:9c:79:b3:37:9d:
                    e5:4c:f1:14:56:be:67:36:bd:1c:67:65:1a:e1:a9:
                    c6:2d:bf:c2:dd:a1:40:10:ff:3a:40:64:90:74:87:
                    90:ab:04:de:74:cd:28:e4:49:30:3d:f6:80:22:96:
                    fc:38:40:47:5d:2f:fb:ea:a5:64:6e:7c:1e:56:9e:
                    13:35:2d
                Exponent: 65537 (0x10001)
        X509v3 extensions:
            X509v3 Subject Key Identifier: 
                2E:FE:77:BC:DE:E7:D6:4F:7C:E8:34:1C:59:8F:38:78:07:92:AA:63
            X509v3 Authority Key Identifier: 
                2E:FE:77:BC:DE:E7:D6:4F:7C:E8:34:1C:59:8F:38:78:07:92:AA:63
            X509v3 Basic Constraints: critical
                CA:TRUE, pathlen:0
            X509v3 Key Usage: critical
                Digital Signature, Non Repudiation, Key Encipherment, Certificate Sign, CRL Sign
            X509v3 Extended Key Usage: 
                TLS Web Server Authentication, TLS Web Client Authentication
            X509v3 Subject Alternative Name: 
                IP Address:127.0.0.1, IP Address:0:0:0:0:0:0:0:1, IP Address:0:0:0:0:0:FFFF:7F00:1, DNS:localhost
    Signature Algorithm: sha256WithRSAEncryption
    Signature Value:
        a5:f6:e9:b2:3b:bc:f2:d2:f5:8f:e1:a9:f3:4a:e2:47:8e:b9:
        39:ac:b2:fc:d8:b9:06:e5:16:7f:20:3b:7a:ff:b0:82:ad:67:
        c0:ab:25:0f:74:02:9f:db:08:c5:74:9e:d7:56:33:0d:5a:61:
        34:85:59:c6:86:72:86:01:21:b5:a6:03:6b:e4:06:d3:51:5d:
        8b:a7:75:af:3f:48:82:7e:1c:11:d1:d4:9c:21:57:09:f2:e6:
        44:47:4e:af:4d:15:77:17:16:63:7a:f1:87:b0:42:fd:15:70:
        39:bf:14:ec:6f:e5:69:fe:30:20:ba:89:79:03:5b:c8:bc:be:
        83:db:de:b6:5d:20:50:44:94:f9:ea:ca:db:2a:07:79:ca:e8:
        f7:f8:c7:f1:e0:45:94:6d:9c:cb:a7:89:1a:d6:7c:e4:72:27:
        3b:22:23:81:a7:fb:fc:51:e9:4e:83:9b:8c:ed:d4:79:d4:56:
        11:97:09:25:8a:7a:83:29:b0:d3:df:d6:fe:a9:92:fd:8c:4a:
        b9:a6:b0:09:89:45:10:4a:78:87:08:98:b8:e4:50:76:74:1b:
        4e:42:83:af:42:06:1d:0e:96:ec:c1:3d:21:32:d1:5c:1d:f9:
        84:9a:d8:27:74:97:f8:da:0a:59:ce:6f:a0:c7:3f:8a:bb:cb:
        c4:91:35:22:77:47:71:69:27:96:09:c6:86:53:6c:1d:f3:4f:
        3c:65:c6:0a:84:60:45:ff:ea:80:d7:ea:fa:24:65:e8:29:95:
        de:7f:ad:86:cb:2d:2c:42:bb:21:3e:3f:80:81:4f:6d:51:12:
        fe:d6:dd:98:ec:3e:d7:d7:41:2c:de:40:08:f4:58:f5:57:ec:
        1a:53:e1:58:4f:98:3c:e3:ad:46:be:29:8c:64:6a:df:22:68:
        41:9b:db:90:5c:e6:82:f7:e7:55:94:0e:00:11:2d:f1:d6:7e:
        a0:a3:bd:81:ec:a4:08:71:31:8e:30:1c:82:de:0f:41:8a:31:
        e1:1c:b2:c4:39:99:58:96:5a:99:e4:7a:93:6e:b7:1e:18:30:
        8a:ea:a4:6b:af:5a:d2:ec:68:e9:6f:e8:9a:5f:0c:92:17:e6:
        63:b5:20:17:6a:37:89:f3:8a:58:dd:52:56:d4:d6:c2:17:65:
        e8:8f:3a:21:47:9f:c8:19:71:95:0f:f5:8b:61:c2:48:78:19:
        da:02:e0:01:91:a6:20:cd:16:89:94:2f:40:90:71:e8:de:f0:
        bb:c2:da:25:55:21:8a:86:07:89:b3:a2:07:03:a9:0a:5a:60:
        69:e5:8d:03:95:9f:19:a6:96:5d:c7:ce:00:f5:9d:e0:98:b3:
        f3:cf:ba:e4:e1:b5:65:45
-----BEGIN CERTIFICATE-----
MIIGuTCCBKGgAwIBAgIUApNlBI+pjw708oUSwTdCUjiN75EwDQYJKoZIhvcNAQEL
BQAwgbExEjAQBgNVBAMMCWxvY2FsaG9zdDEkMCIGCSqGSIb3DQEJARYVZGV2QHRo
cmlmdC5hcGFjaGUub3JnMRYwFAYDVQQLDA1BcGFjaGUgVGhyaWZ0MScwJQYDVQQK
DB5UaGUgQXBhY2hlIFNvZnR3YXJlIEZvdW5kYXRpb24xFDASBgNVBAcMC0ZvcmVz
dCBIaWxsMREwDwYDVQQIDAhNYXJ5bGFuZDELMAkGA1UEBhMCVVMwHhcNMjUwNjEx
MDU1MTQxWhcNMzMwODI4MDU1MTQxWjCBsTESMBAGA1UEAwwJbG9jYWxob3N0MSQw
IgYJKoZIhvcNAQkBFhVkZXZAdGhyaWZ0LmFwYWNoZS5vcmcxFjAUBgNVBAsMDUFw
YWNoZSBUaHJpZnQxJzAlBgNVBAoMHlRoZSBBcGFjaGUgU29mdHdhcmUgRm91bmRh
dGlvbjEUMBIGA1UEBwwLRm9yZXN0IEhpbGwxETAPBgNVBAgMCE1hcnlsYW5kMQsw
CQYDVQQGEwJVUzCCAiIwDQYJKoZIhvcNAQEBBQADggIPADCCAgoCggIBANBBdv4X
vKoi0DP4Y5su/cweTzcj/xzBFceggR0s/KG6ZyVu/VZ4HacgPNYqfazd0G0Xjd+p
UbsA9yQvkRqsOXLvupSSIYyKNYX/yep9/DEISWS0l/oBWU9KBX1XOgfrm48wx8KC
LjH9zHBMq7wRPjb3F4jITo03zNiVRkiEKVcaIMoRwROOc7Ab97Ha9AVsx2uK+V7o
vIdGzFH1eIqkt9yIKsGxuOtw6ctIoaRaLIfdyDhzItHQDDc4NwLgb9/x2Mg6sI1h
IX7gwFswDfshBzfqhFMmkCMn1RWufaWskgjs7jVL68L9dKXYuZuocN2RbB1aeD6X
xNt4wG0DCMSnlo1pjDNiIn0CSx+XKwEorCyJkUvxw4wfZQ+8HQxqTfCVBKdRVPh7
M3Aq1GaLWBF0ey3DDFx+BQnOZ6vDX4ao/PIkjMYkC5pc4E8/6nLk0DSzowTnGIdt
3Um890eS4gOiKdfv64tQjJV4RzAeN3+O8+ZY3YGTWbtkWuv4b5sr0Ojyk4i1zROH
bsGxFzPl3lwVSS+RaCbN0VAM298yLljhI3oocaW8uoJb+zwr7RsHX9jwtavByM1t
E5qtCBBhsZx5szed5UzxFFa+Zza9HGdlGuGpxi2/wt2hQBD/OkBkkHSHkKsE3nTN
KORJMD32gCKW/DhAR10v++qlZG58HlaeEzUtAgMBAAGjgcYwgcMwHQYDVR0OBBYE
FC7+d7ze59ZPfOg0HFmPOHgHkqpjMB8GA1UdIwQYMBaAFC7+d7ze59ZPfOg0HFmP
OHgHkqpjMBIGA1UdEwEB/wQIMAYBAf8CAQAwDgYDVR0PAQH/BAQDAgHmMB0GA1Ud
JQQWMBQGCCsGAQUFBwMBBggrBgEFBQcDAjA+BgNVHREENzA1hwR/AAABhxAAAAAA
AAAAAAAAAAAAAAABhxAAAAAAAAAAAAAA//9/AAABgglsb2NhbGhvc3QwDQYJKoZI
hvcNAQELBQADggIBAKX26bI7vPLS9Y/hqfNK4keOuTmssvzYuQblFn8gO3r/sIKt
Z8CrJQ90Ap/bCMV0ntdWMw1aYTSFWcaGcoYBIbWmA2vkBtNRXYunda8/SIJ+HBHR
1JwhVwny5kRHTq9NFXcXFmN68YewQv0VcDm/FOxv5Wn+MCC6iXkDW8i8voPb3rZd
IFBElPnqytsqB3nK6Pf4x/HgRZRtnMuniRrWfORyJzsiI4Gn+/xR6U6Dm4zt1HnU
VhGXCSWKeoMpsNPf1v6pkv2MSrmmsAmJRRBKeIcImLjkUHZ0G05Cg69CBh0OluzB
PSEy0Vwd+YSa2Cd0l/jaClnOb6DHP4q7y8SRNSJ3R3FpJ5YJxoZTbB3zTzxlxgqE
YEX/6oDX6vokZegpld5/rYbLLSxCuyE+P4CBT21REv7W3ZjsPtfXQSzeQAj0WPVX
7BpT4VhPmDzjrUa+KYxkat8iaEGb25Bc5oL351WUDgARLfHWfqCjvYHspAhxMY4w
HILeD0GKMeEcssQ5mViWWpnkepNutx4YMIrqpGuvWtLsaOlv6JpfDJIX5mO1IBdq
N4nziljdUlbU1sIXZeiPOiFHn8gZcZUP9Ythwkh4GdoC4AGRpiDNFomUL0CQceje
8LvC2iVVIYqGB4mzogcDqQpaYGnljQOVnxmmll3HzgD1neCYs/PPuuThtWVF
-----END CERTIFICATE-----
